target datalayout = "e-m:e-p270:32:32-p271:32:32-p272:64:64-i64:64-i128:128-f80:128-n8:16:32:64-S128"
target triple = "x86_64-pc-linux-gnu"

%"class.ceres::internal::ContextImpl" = type <{ %"class.ceres::Context", %"class.ceres::internal::ThreadPool", ptr, ptr, [2 x ptr], ptr, i8, [3 x i8], i32, %struct.cudaDeviceProp, i8, [3 x i8], i32, i32, [4 x i8] }>
%"class.ceres::Context" = type { ptr }
%"class.ceres::internal::ThreadPool" = type { %"class.ceres::internal::ConcurrentQueue", %"class.std::vector", %"class.std::mutex" }
%"class.ceres::internal::ConcurrentQueue" = type <{ %"class.std::mutex", %"class.std::condition_variable", %"class.std::queue", i8, [7 x i8] }>
%"class.std::condition_variable" = type { %"class.std::__condvar" }
%"class.std::__condvar" = type { %union.pthread_cond_t }
%union.pthread_cond_t = type { %struct.__pthread_cond_s }
%struct.__pthread_cond_s = type { %union.__atomic_wide_counter, %union.__atomic_wide_counter, [2 x i32], [2 x i32], i32, i32, [2 x i32] }
%union.__atomic_wide_counter = type { i64 }
%"class.std::queue" = type { %"class.std::deque" }
%"class.std::deque" = type { %"class.std::_Deque_base" }
%"class.std::_Deque_base" = type { %"struct.std::_Deque_base<std::function<void ()>, std::allocator<std::function<void ()>>>::_Deque_impl" }
%"struct.std::_Deque_base<std::function<void ()>, std::allocator<std::function<void ()>>>::_Deque_impl" = type { %"struct.std::_Deque_base<std::function<void ()>, std::allocator<std::function<void ()>>>::_Deque_impl_data" }
%"struct.std::_Deque_base<std::function<void ()>, std::allocator<std::function<void ()>>>::_Deque_impl_data" = type { ptr, i64, %"struct.std::_Deque_iterator", %"struct.std::_Deque_iterator" }
%"struct.std::_Deque_iterator" = type { ptr, ptr, ptr, ptr }
%"class.std::vector" = type { %"struct.std::_Vector_base" }
%"struct.std::_Vector_base" = type { %"struct.std::_Vector_base<std::thread, std::allocator<std::thread>>::_Vector_impl" }
%"struct.std::_Vector_base<std::thread, std::allocator<std::thread>>::_Vector_impl" = type { %"struct.std::_Vector_base<std::thread, std::allocator<std::thread>>::_Vector_impl_data" }
%"struct.std::_Vector_base<std::thread, std::allocator<std::thread>>::_Vector_impl_data" = type { ptr, ptr, ptr }
%"class.std::mutex" = type { %"class.std::__mutex_base" }
%"class.std::__mutex_base" = type { %union.pthread_mutex_t }
%union.pthread_mutex_t = type { %struct.__pthread_mutex_s }
%struct.__pthread_mutex_s = type { i32, i32, i32, i32, i32, i16, i16, %struct.__pthread_internal_list }
%struct.__pthread_internal_list = type { ptr, ptr }
%struct.cudaDeviceProp = type { [256 x i8], %struct.CUuuid_st, [8 x i8], i32, i64, i64, i32, i32, i64, i32, [3 x i32], [3 x i32], i32, i64, i32, i32, i64, i64, i32, i32, i32, i32, i32, i32, i32, i32, i32, [2 x i32], [2 x i32], [3 x i32], [2 x i32], [3 x i32], [3 x i32], i32, [2 x i32], [3 x i32], [2 x i32], i32, [2 x i32], [3 x i32], [2 x i32], [3 x i32], i32, [2 x i32], i64, i32, i32, i32, i32, i32, i32, i32, i32, i32, i32, i32, i32, i32, i32, i32, i32, i64, i32, i32, i32, i32, i32, i32, i32, i32, i32, i32, i32, i32, i64, i32, i32, i32, i32, i64 }
%struct.CUuuid_st = type { [16 x i8] }

; Function Attrs: mustprogress uwtable
define hidden void @_ZN5ceres8internal11ContextImpl8TearDownEv(ptr noundef nonnull align 8 dereferenceable(1040) %0) #0 align 2 {
  %2 = alloca ptr, align 8
  %3 = alloca ptr, align 8
  %4 = alloca ptr, align 8
  %5 = alloca ptr, align 8
  %6 = alloca ptr, align 8
  store ptr %0, ptr %2, align 8
  %7 = load ptr, ptr %2, align 8
  %8 = getelementptr inbounds %"class.ceres::internal::ContextImpl", ptr %7, i32 0, i32 2
  %9 = load ptr, ptr %8, align 8
  %10 = icmp ne ptr %9, null
  br i1 %10, label %11, label %16

11:                                               ; preds = %1
  %12 = getelementptr inbounds %"class.ceres::internal::ContextImpl", ptr %7, i32 0, i32 2
  %13 = load ptr, ptr %12, align 8
  %14 = call i32 @cusolverDnDestroy(ptr noundef %13)
  %15 = getelementptr inbounds %"class.ceres::internal::ContextImpl", ptr %7, i32 0, i32 2
  store ptr null, ptr %15, align 8
  br label %16

16:                                               ; preds = %11, %1
  %17 = getelementptr inbounds %"class.ceres::internal::ContextImpl", ptr %7, i32 0, i32 3
  %18 = load ptr, ptr %17, align 8
  %19 = icmp ne ptr %18, null
  br i1 %19, label %20, label %25

20:                                               ; preds = %16
  %21 = getelementptr inbounds %"class.ceres::internal::ContextImpl", ptr %7, i32 0, i32 3
  %22 = load ptr, ptr %21, align 8
  %23 = call i32 @cublasDestroy_v2(ptr noundef %22)
  %24 = getelementptr inbounds %"class.ceres::internal::ContextImpl", ptr %7, i32 0, i32 3
  store ptr null, ptr %24, align 8
  br label %25

25:                                               ; preds = %20, %16
  %26 = getelementptr inbounds %"class.ceres::internal::ContextImpl", ptr %7, i32 0, i32 5
  %27 = load ptr, ptr %26, align 8
  %28 = icmp ne ptr %27, null
  br i1 %28, label %29, label %34

29:                                               ; preds = %25
  %30 = getelementptr inbounds %"class.ceres::internal::ContextImpl", ptr %7, i32 0, i32 5
  %31 = load ptr, ptr %30, align 8
  %32 = call i32 @cusparseDestroy(ptr noundef %31)
  %33 = getelementptr inbounds %"class.ceres::internal::ContextImpl", ptr %7, i32 0, i32 5
  store ptr null, ptr %33, align 8
  br label %34

34:                                               ; preds = %29, %25
  %35 = getelementptr inbounds %"class.ceres::internal::ContextImpl", ptr %7, i32 0, i32 4
  store ptr %35, ptr %3, align 8
  %36 = load ptr, ptr %3, align 8
  %37 = getelementptr inbounds [2 x ptr], ptr %36, i64 0, i64 0
  store ptr %37, ptr %4, align 8
  %38 = load ptr, ptr %3, align 8
  %39 = getelementptr inbounds [2 x ptr], ptr %38, i64 0, i64 0
  %40 = getelementptr inbounds ptr, ptr %39, i64 2
  store ptr %40, ptr %5, align 8
  br label %41

41:                                               ; preds = %56, %34
  %42 = load ptr, ptr %4, align 8
  %43 = load ptr, ptr %5, align 8
  %44 = icmp ne ptr %42, %43
  br i1 %44, label %45, label %59

45:                                               ; preds = %41
  %46 = load ptr, ptr %4, align 8
  store ptr %46, ptr %6, align 8
  %47 = load ptr, ptr %6, align 8
  %48 = load ptr, ptr %47, align 8
  %49 = icmp ne ptr %48, null
  br i1 %49, label %50, label %55

50:                                               ; preds = %45
  %51 = load ptr, ptr %6, align 8
  %52 = load ptr, ptr %51, align 8
  %53 = call i32 @cudaStreamDestroy(ptr noundef %52)
  %54 = load ptr, ptr %6, align 8
  store ptr null, ptr %54, align 8
  br label %55

55:                                               ; preds = %50, %45
  br label %56

56:                                               ; preds = %55
  %57 = load ptr, ptr %4, align 8
  %58 = getelementptr inbounds ptr, ptr %57, i32 1
  store ptr %58, ptr %4, align 8
  br label %41

59:                                               ; preds = %41
  %60 = getelementptr inbounds %"class.ceres::internal::ContextImpl", ptr %7, i32 0, i32 6
  store i8 0, ptr %60, align 8
  ret void
}