; Function Attrs: mustprogress uwtable
define hidden void @_ZN5ceres8internal11ContextImpl8TearDownEv(ptr nocapture noundef nonnull align 8 dereferenceable(1040) %0) local_unnamed_addr #0 align 2 {
  %2 = getelementptr inbounds i8, ptr %0, i64 248
  %3 = load ptr, ptr %2, align 8
  %.not = icmp eq ptr %3, null
  br i1 %.not, label %6, label %4

4:                                                ; preds = %1
  %5 = tail call i32 @cusolverDnDestroy(ptr noundef nonnull %3)
  store ptr null, ptr %2, align 8
  br label %6

6:                                                ; preds = %4, %1
  %7 = getelementptr inbounds i8, ptr %0, i64 256
  %8 = load ptr, ptr %7, align 8
  %.not14 = icmp eq ptr %8, null
  br i1 %.not14, label %11, label %9

9:                                                ; preds = %6
  %10 = tail call i32 @cublasDestroy_v2(ptr noundef nonnull %8)
  store ptr null, ptr %7, align 8
  br label %11

11:                                               ; preds = %9, %6
  %12 = getelementptr inbounds i8, ptr %0, i64 280
  %13 = load ptr, ptr %12, align 8
  %.not15 = icmp eq ptr %13, null
  br i1 %.not15, label %16, label %14

14:                                               ; preds = %11
  %15 = tail call i32 @cusparseDestroy(ptr noundef nonnull %13)
  store ptr null, ptr %12, align 8
  br label %16

16:                                               ; preds = %14, %11
  %.0.ptr19 = getelementptr inbounds i8, ptr %0, i64 264
  br label %17

17:                                               ; preds = %16, %21
  %.0.ptr21 = phi ptr [ %.0.ptr19, %16 ], [ %.0.ptr, %21 ]
  %.0.idx20 = phi i64 [ 264, %16 ], [ %.0.add, %21 ]
  %18 = load ptr, ptr %.0.ptr21, align 8
  %.not18 = icmp eq ptr %18, null
  br i1 %.not18, label %21, label %19

19:                                               ; preds = %17
  %20 = tail call i32 @cudaStreamDestroy(ptr noundef nonnull %18)
  store ptr null, ptr %.0.ptr21, align 8
  br label %21

21:                                               ; preds = %17, %19
  %.0.add = add nuw nsw i64 %.0.idx20, 8
  %.0.ptr = getelementptr inbounds i8, ptr %0, i64 %.0.add
  %.not16 = icmp eq i64 %.0.add, 280
  br i1 %.not16, label %22, label %17

22:                                               ; preds = %21
  %23 = getelementptr inbounds i8, ptr %0, i64 288
  store i8 0, ptr %23, align 8
  ret void
}